; Function Attrs: nounwind uwtable
define noalias noundef ptr @Abc_MfsWinMarkTfi(ptr noundef %0) local_unnamed_addr #0 {
  %2 = tail call noalias dereferenceable_or_null(16) ptr @malloc(i64 noundef 16) #10
  %3 = getelementptr inbounds nuw i8, ptr %2, i64 4
  store i32 0, ptr %3, align 4, !tbaa !33
  store i32 100, ptr %2, align 8, !tbaa !35
  %4 = tail call noalias dereferenceable_or_null(800) ptr @malloc(i64 noundef 800) #10
  %5 = getelementptr inbounds nuw i8, ptr %2, i64 8
  store ptr %4, ptr %5, align 8, !tbaa !36
  tail call void @Abc_MfsWinMarkTfi_rec(ptr noundef %0, ptr noundef nonnull %2)
  ret ptr %2
}